target datalayout = "e-m:e-p270:32:32-p271:32:32-p272:64:64-i64:64-i128:128-f80:128-n8:16:32:64-S128"
target triple = "x86_64-pc-linux-gnu"

%"class.clang::CallGraph" = type { %"class.llvm::DenseMap.517", ptr }
%"class.llvm::DenseMap.517" = type <{ ptr, i32, i32, i32, [4 x i8] }>

; Function Attrs: mustprogress nounwind uwtable
define linkonce_odr hidden noundef ptr @_ZN4llvm16cast_convert_valIN5clang19TranslationUnitDeclEPKNS1_4DeclES5_E4doitES5_(ptr noundef %0) #0 comdat align 2 {
  %2 = alloca ptr, align 8
  store ptr %0, ptr %2, align 8
  %3 = load ptr, ptr %2, align 8
  ret ptr %3
}

; Function Attrs: mustprogress nounwind uwtable
define linkonce_odr hidden void @_ZN5clang9CallGraph14addToCallGraphEPNS_4DeclE(ptr noundef nonnull align 8 dereferenceable(32) %0, ptr noundef %1) #0 comdat align 2 {
  %3 = alloca ptr, align 8
  %4 = alloca ptr, align 8
  store ptr %0, ptr %3, align 8
  store ptr %1, ptr %4, align 8
  %5 = load ptr, ptr %3, align 8
  %6 = load ptr, ptr %4, align 8
  %7 = call noundef zeroext i1 @_ZN5clang19RecursiveASTVisitorINS_9CallGraphEE12TraverseDeclEPNS_4DeclE(ptr noundef nonnull align 1 dereferenceable(1) %5, ptr noundef %6)
  ret void
}

; Function Attrs: mustprogress nounwind uwtable
define linkonce_odr hidden noundef ptr @_ZN4llvm8CastInfoIN5clang19TranslationUnitDeclEPKNS1_4DeclEvE6doCastERKS5_(ptr noundef nonnull align 8 dereferenceable(8) %0) #0 comdat align 2 {
  %2 = alloca ptr, align 8
  store ptr %0, ptr %2, align 8
  %3 = load ptr, ptr %2, align 8
  %4 = load ptr, ptr %3, align 8
  %5 = call noundef ptr @_ZN4llvm16cast_convert_valIN5clang19TranslationUnitDeclEPKNS1_4DeclES5_E4doitES5_(ptr noundef %4)
  ret ptr %5
}

; Function Attrs: mustprogress nounwind uwtable
define internal void @_ZNK12_GLOBAL__N_115CallGraphDumper12checkASTDeclEPKN5clang19TranslationUnitDeclERNS1_4ento15AnalysisManagerERNS5_11BugReporterE(ptr noundef nonnull align 8 dereferenceable(32) %0, ptr noundef %1, ptr noundef nonnull align 8 dereferenceable(256) %2, ptr noundef nonnull align 8 dereferenceable(120) %3) #0 align 2 {
  %5 = alloca ptr, align 8
  %6 = alloca ptr, align 8
  %7 = alloca ptr, align 8
  %8 = alloca ptr, align 8
  %9 = alloca %"class.clang::CallGraph", align 8
  store ptr %0, ptr %5, align 8
  store ptr %1, ptr %6, align 8
  store ptr %2, ptr %7, align 8
  store ptr %3, ptr %8, align 8
  call void @_ZN5clang9CallGraphC1Ev(ptr noundef nonnull align 8 dereferenceable(32) %9)
  %10 = load ptr, ptr %6, align 8
  call void @_ZN5clang9CallGraph14addToCallGraphEPNS_4DeclE(ptr noundef nonnull align 8 dereferenceable(32) %9, ptr noundef %10)
  call void @_ZNK5clang9CallGraph4dumpEv(ptr noundef nonnull align 8 dereferenceable(32) %9)
  call void @_ZN5clang9CallGraphD1Ev(ptr noundef nonnull align 8 dereferenceable(32) %9) #10
  ret void
}

; Function Attrs: mustprogress nounwind uwtable
define linkonce_odr hidden noundef ptr @_ZN4llvm4castIN5clang19TranslationUnitDeclEKNS1_4DeclEEEDcPT0_(ptr noundef %0) #0 comdat {
  %2 = alloca ptr, align 8
  store ptr %0, ptr %2, align 8
  %3 = call noundef ptr @_ZN4llvm8CastInfoIN5clang19TranslationUnitDeclEPKNS1_4DeclEvE6doCastERKS5_(ptr noundef nonnull align 8 dereferenceable(8) %2)
  ret ptr %3
}

; Function Attrs: mustprogress nounwind uwtable
define internal void @_ZN5clang4ento5check7ASTDeclINS_19TranslationUnitDeclEE10_checkDeclIN12_GLOBAL__N_115CallGraphDumperEEEvPvPKNS_4DeclERNS0_15AnalysisManagerERNS0_11BugReporterE(ptr noundef %0, ptr noundef %1, ptr noundef nonnull align 8 dereferenceable(256) %2, ptr noundef nonnull align 8 dereferenceable(120) %3) #0 align 2 {
  %5 = alloca ptr, align 8
  %6 = alloca ptr, align 8
  %7 = alloca ptr, align 8
  %8 = alloca ptr, align 8
  store ptr %0, ptr %5, align 8
  store ptr %1, ptr %6, align 8
  store ptr %2, ptr %7, align 8
  store ptr %3, ptr %8, align 8
  %9 = load ptr, ptr %5, align 8
  %10 = load ptr, ptr %6, align 8
  %11 = call noundef ptr @_ZN4llvm4castIN5clang19TranslationUnitDeclEKNS1_4DeclEEEDcPT0_(ptr noundef %10)
  %12 = load ptr, ptr %7, align 8
  %13 = load ptr, ptr %8, align 8
  call void @_ZNK12_GLOBAL__N_115CallGraphDumper12checkASTDeclEPKN5clang19TranslationUnitDeclERNS1_4ento15AnalysisManagerERNS5_11BugReporterE(ptr noundef nonnull align 8 dereferenceable(32) %9, ptr noundef %11, ptr noundef nonnull align 8 dereferenceable(256) %12, ptr noundef nonnull align 8 dereferenceable(120) %13)
  ret void
}