; Function Attrs: mustprogress nounwind uwtable
define internal void @_ZN5clang4ento5check7ASTDeclINS_19TranslationUnitDeclEE10_checkDeclIN12_GLOBAL__N_115CallGraphDumperEEEvPvPKNS_4DeclERNS0_15AnalysisManagerERNS0_11BugReporterE(ptr readnone captures(none) %0, ptr noundef %1, ptr nonnull readnone align 8 captures(none) %2, ptr nonnull readnone align 8 captures(none) %3) #0 align 2 {
  %5 = alloca %"class.clang::CallGraph", align 8
  call void @llvm.lifetime.start.p0(i64 32, ptr nonnull %5)
  call void @_ZN5clang9CallGraphC1Ev(ptr noundef nonnull align 8 dereferenceable(32) %5) #22
  %6 = call noundef zeroext i1 @_ZN5clang19RecursiveASTVisitorINS_9CallGraphEE12TraverseDeclEPNS_4DeclE(ptr noundef nonnull align 8 dereferenceable(32) %5, ptr noundef %1)
  call void @_ZNK5clang9CallGraph4dumpEv(ptr noundef nonnull align 8 dereferenceable(32) %5) #22
  call void @_ZN5clang9CallGraphD1Ev(ptr noundef nonnull align 8 dereferenceable(32) %5) #22
  call void @llvm.lifetime.end.p0(i64 32, ptr nonnull %5)
  ret void
}